target datalayout = "e-m:e-p270:32:32-p271:32:32-p272:64:64-i64:64-i128:128-f80:128-n8:16:32:64-S128"
target triple = "x86_64-pc-linux-gnu"

%struct.H5VL_connector_t = type { ptr, i64, ptr, ptr }
%struct.H5VL_object_t = type { ptr, ptr, i64 }

@.str = private unnamed_addr constant [106 x i8] c"generated/home/dtcxzyw/WorkSpace/Projects/compilers/llvm-opt-benchmark/bench/hdf5/hdf5/src/H5VLcallback.c\00", align 1
@H5E_CANTSET_g = external global i64, align 8
@H5E_VOL_g = external global i64, align 8
@H5VL_init_g = external global i8, align 1
@H5_libterm_g = external global i8, align 1
@H5E_FUNC_g = external global i64, align 8
@H5E_CANTINIT_g = external global i64, align 8
@.str.5 = private unnamed_addr constant [32 x i8] c"interface initialization failed\00", align 1
@.str.24 = private unnamed_addr constant [27 x i8] c"can't set VOL wrapper info\00", align 1
@H5E_CANTRESET_g = external global i64, align 8
@.str.26 = private unnamed_addr constant [29 x i8] c"can't reset VOL wrapper info\00", align 1
@__func__.H5VL_attr_open = private unnamed_addr constant [15 x i8] c"H5VL_attr_open\00", align 1
@H5E_CANTOPENOBJ_g = external global i64, align 8
@.str.28 = private unnamed_addr constant [22 x i8] c"attribute open failed\00", align 1

; Function Attrs: nounwind uwtable
define ptr @H5VL_attr_open(ptr noundef %0, ptr noundef %1, ptr noundef %2, i64 noundef %3, i64 noundef %4, ptr noundef %5) #0 {
  %7 = alloca ptr, align 8
  %8 = alloca ptr, align 8
  %9 = alloca ptr, align 8
  %10 = alloca i64, align 8
  %11 = alloca i64, align 8
  %12 = alloca ptr, align 8
  %13 = alloca i8, align 1
  %14 = alloca ptr, align 8
  %15 = alloca i8, align 1
  store ptr %0, ptr %7, align 8, !tbaa !58
  store ptr %1, ptr %8, align 8, !tbaa !60
  store ptr %2, ptr %9, align 8, !tbaa !50
  store i64 %3, ptr %10, align 8, !tbaa !3
  store i64 %4, ptr %11, align 8, !tbaa !3
  store ptr %5, ptr %12, align 8, !tbaa !42
  call void @llvm.lifetime.start.p0(i64 1, ptr %13) #8
  store i8 0, ptr %13, align 1, !tbaa !9
  call void @llvm.lifetime.start.p0(i64 8, ptr %14) #8
  store ptr null, ptr %14, align 8, !tbaa !42
  call void @llvm.lifetime.start.p0(i64 1, ptr %15) #8
  store i8 0, ptr %15, align 1, !tbaa !9
  %16 = load i8, ptr @H5VL_init_g, align 1, !tbaa !9, !range !14, !noundef !15
  %17 = trunc i8 %16 to i1
  br i1 %17, label %22, label %18

18:                                               ; preds = %6
  %19 = load i8, ptr @H5_libterm_g, align 1, !tbaa !9, !range !14, !noundef !15
  %20 = trunc i8 %19 to i1
  %21 = xor i1 %20, true
  br label %22

22:                                               ; preds = %18, %6
  %23 = phi i1 [ false, %6 ], [ %21, %18 ]
  %24 = xor i1 %23, true
  %25 = xor i1 %24, true
  %26 = zext i1 %25 to i32
  %27 = sext i32 %26 to i64
  %28 = call i64 @llvm.expect.i64(i64 %27, i64 0)
  %29 = icmp ne i64 %28, 0
  br i1 %29, label %30, label %53

30:                                               ; preds = %22
  store i8 1, ptr @H5VL_init_g, align 1, !tbaa !9
  %31 = call i32 @H5VL__init_package()
  %32 = icmp slt i32 %31, 0
  br i1 %32, label %33, label %52

33:                                               ; preds = %30
  store i8 0, ptr @H5VL_init_g, align 1, !tbaa !9
  br label %34

34:                                               ; preds = %33
  br label %35

35:                                               ; preds = %34
  br label %36

36:                                               ; preds = %35
  %37 = load i64, ptr @H5E_FUNC_g, align 8, !tbaa !3
  %38 = load i64, ptr @H5E_CANTINIT_g, align 8, !tbaa !3
  %39 = call i32 (ptr, ptr, i32, i64, i64, ptr, ...) @H5E_printf_stack(ptr noundef @.str, ptr noundef @__func__.H5VL_attr_open, i32 noundef 1190, i64 noundef %37, i64 noundef %38, ptr noundef @.str.5)
  br label %40

40:                                               ; preds = %36
  br label %41

41:                                               ; preds = %40
  store i8 1, ptr %15, align 1, !tbaa !9
  %42 = load i8, ptr %15, align 1, !tbaa !9, !range !14, !noundef !15
  %43 = trunc i8 %42 to i1
  %44 = zext i1 %43 to i8
  store i8 %44, ptr %15, align 1, !tbaa !9
  br label %45

45:                                               ; preds = %41
  br label %46

46:                                               ; preds = %45
  br label %47

47:                                               ; preds = %46
  store ptr null, ptr %14, align 8, !tbaa !42
  br label %127

48:                                               ; No predecessors!
  br label %49

49:                                               ; preds = %48
  br label %50

50:                                               ; preds = %49
  br label %51

51:                                               ; preds = %50
  br label %52

52:                                               ; preds = %51, %30
  br label %53

53:                                               ; preds = %52, %22
  %54 = load i8, ptr @H5VL_init_g, align 1, !tbaa !9, !range !14, !noundef !15
  %55 = trunc i8 %54 to i1
  br i1 %55, label %60, label %56

56:                                               ; preds = %53
  %57 = load i8, ptr @H5_libterm_g, align 1, !tbaa !9, !range !14, !noundef !15
  %58 = trunc i8 %57 to i1
  %59 = xor i1 %58, true
  br label %60

60:                                               ; preds = %56, %53
  %61 = phi i1 [ true, %53 ], [ %59, %56 ]
  %62 = xor i1 %61, true
  %63 = xor i1 %62, true
  %64 = zext i1 %63 to i32
  %65 = sext i32 %64 to i64
  %66 = call i64 @llvm.expect.i64(i64 %65, i64 1)
  %67 = icmp ne i64 %66, 0
  br i1 %67, label %68, label %150

68:                                               ; preds = %60
  %69 = load ptr, ptr %7, align 8, !tbaa !58
  %70 = call i32 @H5VL_set_vol_wrapper(ptr noundef %69)
  %71 = icmp slt i32 %70, 0
  br i1 %71, label %72, label %91

72:                                               ; preds = %68
  br label %73

73:                                               ; preds = %72
  br label %74

74:                                               ; preds = %73
  br label %75

75:                                               ; preds = %74
  %76 = load i64, ptr @H5E_VOL_g, align 8, !tbaa !3
  %77 = load i64, ptr @H5E_CANTSET_g, align 8, !tbaa !3
  %78 = call i32 (ptr, ptr, i32, i64, i64, ptr, ...) @H5E_printf_stack(ptr noundef @.str, ptr noundef @__func__.H5VL_attr_open, i32 noundef 1194, i64 noundef %76, i64 noundef %77, ptr noundef @.str.24)
  br label %79

79:                                               ; preds = %75
  br label %80

80:                                               ; preds = %79
  store i8 1, ptr %15, align 1, !tbaa !9
  %81 = load i8, ptr %15, align 1, !tbaa !9, !range !14, !noundef !15
  %82 = trunc i8 %81 to i1
  %83 = zext i1 %82 to i8
  store i8 %83, ptr %15, align 1, !tbaa !9
  br label %84

84:                                               ; preds = %80
  br label %85

85:                                               ; preds = %84
  br label %86

86:                                               ; preds = %85
  store ptr null, ptr %14, align 8, !tbaa !42
  br label %127

87:                                               ; No predecessors!
  br label %88

88:                                               ; preds = %87
  br label %89

89:                                               ; preds = %88
  br label %90

90:                                               ; preds = %89
  br label %91

91:                                               ; preds = %90, %68
  store i8 1, ptr %13, align 1, !tbaa !9
  %92 = load ptr, ptr %7, align 8, !tbaa !58
  %93 = getelementptr inbounds nuw %struct.H5VL_object_t, ptr %92, i32 0, i32 0
  %94 = load ptr, ptr %93, align 8, !tbaa !62
  %95 = load ptr, ptr %8, align 8, !tbaa !60
  %96 = load ptr, ptr %7, align 8, !tbaa !58
  %97 = getelementptr inbounds nuw %struct.H5VL_object_t, ptr %96, i32 0, i32 1
  %98 = load ptr, ptr %97, align 8, !tbaa !64
  %99 = getelementptr inbounds nuw %struct.H5VL_connector_t, ptr %98, i32 0, i32 0
  %100 = load ptr, ptr %99, align 8, !tbaa !16
  %101 = load ptr, ptr %9, align 8, !tbaa !50
  %102 = load i64, ptr %10, align 8, !tbaa !3
  %103 = load i64, ptr %11, align 8, !tbaa !3
  %104 = load ptr, ptr %12, align 8, !tbaa !42
  %105 = call ptr @H5VL__attr_open(ptr noundef %94, ptr noundef %95, ptr noundef %100, ptr noundef %101, i64 noundef %102, i64 noundef %103, ptr noundef %104)
  store ptr %105, ptr %14, align 8, !tbaa !42
  %106 = icmp eq ptr null, %105
  br i1 %106, label %107, label %126

107:                                              ; preds = %91
  br label %108

108:                                              ; preds = %107
  br label %109

109:                                              ; preds = %108
  br label %110

110:                                              ; preds = %109
  %111 = load i64, ptr @H5E_VOL_g, align 8, !tbaa !3
  %112 = load i64, ptr @H5E_CANTOPENOBJ_g, align 8, !tbaa !3
  %113 = call i32 (ptr, ptr, i32, i64, i64, ptr, ...) @H5E_printf_stack(ptr noundef @.str, ptr noundef @__func__.H5VL_attr_open, i32 noundef 1200, i64 noundef %111, i64 noundef %112, ptr noundef @.str.28)
  br label %114

114:                                              ; preds = %110
  br label %115

115:                                              ; preds = %114
  store i8 1, ptr %15, align 1, !tbaa !9
  %116 = load i8, ptr %15, align 1, !tbaa !9, !range !14, !noundef !15
  %117 = trunc i8 %116 to i1
  %118 = zext i1 %117 to i8
  store i8 %118, ptr %15, align 1, !tbaa !9
  br label %119

119:                                              ; preds = %115
  br label %120

120:                                              ; preds = %119
  br label %121

121:                                              ; preds = %120
  store ptr null, ptr %14, align 8, !tbaa !42
  br label %127

122:                                              ; No predecessors!
  br label %123

123:                                              ; preds = %122
  br label %124

124:                                              ; preds = %123
  br label %125

125:                                              ; preds = %124
  br label %126

126:                                              ; preds = %125, %91
  br label %127

127:                                              ; preds = %126, %121, %86, %47
  %128 = load i8, ptr %13, align 1, !tbaa !9, !range !14, !noundef !15
  %129 = trunc i8 %128 to i1
  br i1 %129, label %130, label %149

130:                                              ; preds = %127
  %131 = call i32 @H5VL_reset_vol_wrapper()
  %132 = icmp slt i32 %131, 0
  br i1 %132, label %133, label %149

133:                                              ; preds = %130
  br label %134

134:                                              ; preds = %133
  br label %135

135:                                              ; preds = %134
  br label %136

136:                                              ; preds = %135
  %137 = load i64, ptr @H5E_VOL_g, align 8, !tbaa !3
  %138 = load i64, ptr @H5E_CANTRESET_g, align 8, !tbaa !3
  %139 = call i32 (ptr, ptr, i32, i64, i64, ptr, ...) @H5E_printf_stack(ptr noundef @.str, ptr noundef @__func__.H5VL_attr_open, i32 noundef 1205, i64 noundef %137, i64 noundef %138, ptr noundef @.str.26)
  br label %140

140:                                              ; preds = %136
  br label %141

141:                                              ; preds = %140
  store i8 1, ptr %15, align 1, !tbaa !9
  %142 = load i8, ptr %15, align 1, !tbaa !9, !range !14, !noundef !15
  %143 = trunc i8 %142 to i1
  %144 = zext i1 %143 to i8
  store i8 %144, ptr %15, align 1, !tbaa !9
  br label %145

145:                                              ; preds = %141
  br label %146

146:                                              ; preds = %145
  store ptr null, ptr %14, align 8, !tbaa !42
  br label %147

147:                                              ; preds = %146
  br label %148

148:                                              ; preds = %147
  br label %149

149:                                              ; preds = %148, %130, %127
  br label %150

150:                                              ; preds = %149, %60
  %151 = load ptr, ptr %14, align 8, !tbaa !42
  call void @llvm.lifetime.end.p0(i64 1, ptr %15) #8
  call void @llvm.lifetime.end.p0(i64 8, ptr %14) #8
  call void @llvm.lifetime.end.p0(i64 1, ptr %13) #8
  ret ptr %151
}