; Function Attrs: nounwind uwtable
define ptr @H5VL_attr_open(ptr noundef %0, ptr noundef %1, ptr noundef %2, i64 noundef %3, i64 noundef %4, ptr noundef %5) local_unnamed_addr #0 {
  %7 = load i8, ptr @H5VL_init_g, align 1, !tbaa !33, !range !35, !noundef !36
  %8 = trunc nuw i8 %7 to i1
  %9 = load i8, ptr @H5_libterm_g, align 1, !range !35
  %10 = trunc nuw i8 %9 to i1
  %11 = select i1 %8, i1 true, i1 %10
  br i1 %11, label %19, label %12, !prof !37

12:                                               ; preds = %6
  store i8 1, ptr @H5VL_init_g, align 1, !tbaa !33
  %13 = tail call i32 @H5VL__init_package() #7
  %14 = icmp slt i32 %13, 0
  br i1 %14, label %15, label %._crit_edge

._crit_edge:                                      ; preds = %12
  %.pre = load i8, ptr @H5VL_init_g, align 1, !tbaa !33, !range !35
  %.pre18 = load i8, ptr @H5_libterm_g, align 1, !range !35
  %.pre19 = trunc nuw i8 %.pre to i1
  %.pre20 = trunc nuw i8 %.pre18 to i1
  br label %19

15:                                               ; preds = %12
  store i8 0, ptr @H5VL_init_g, align 1, !tbaa !33
  %16 = load i64, ptr @H5E_FUNC_g, align 8, !tbaa !3
  %17 = load i64, ptr @H5E_CANTINIT_g, align 8, !tbaa !3
  %18 = tail call i32 (ptr, ptr, i32, i64, i64, ptr, ...) @H5E_printf_stack(ptr noundef nonnull @.str, ptr noundef nonnull @__func__.H5VL_attr_open, i32 noundef 1190, i64 noundef %16, i64 noundef %17, ptr noundef nonnull @.str.5) #7
  br label %47

19:                                               ; preds = %._crit_edge, %6
  %.pre-phi21 = phi i1 [ %.pre20, %._crit_edge ], [ %10, %6 ]
  %.pre-phi = phi i1 [ %.pre19, %._crit_edge ], [ %8, %6 ]
  %20 = xor i1 %.pre-phi21, true
  %21 = select i1 %.pre-phi, i1 true, i1 %20
  br i1 %21, label %22, label %47, !prof !37

22:                                               ; preds = %19
  %23 = tail call i32 @H5VL_set_vol_wrapper(ptr noundef %0) #7
  %24 = icmp slt i32 %23, 0
  br i1 %24, label %25, label %29

25:                                               ; preds = %22
  %26 = load i64, ptr @H5E_VOL_g, align 8, !tbaa !3
  %27 = load i64, ptr @H5E_CANTSET_g, align 8, !tbaa !3
  %28 = tail call i32 (ptr, ptr, i32, i64, i64, ptr, ...) @H5E_printf_stack(ptr noundef nonnull @.str, ptr noundef nonnull @__func__.H5VL_attr_open, i32 noundef 1194, i64 noundef %26, i64 noundef %27, ptr noundef nonnull @.str.24) #7
  br label %47

29:                                               ; preds = %22
  %30 = load ptr, ptr %0, align 8, !tbaa !55
  %31 = getelementptr inbounds nuw i8, ptr %0, i64 8
  %32 = load ptr, ptr %31, align 8, !tbaa !57
  %33 = load ptr, ptr %32, align 8, !tbaa !7
  %34 = tail call fastcc ptr @H5VL__attr_open(ptr noundef %30, ptr noundef %1, ptr noundef %33, ptr noundef %2, i64 noundef %3, i64 noundef %4, ptr noundef %5)
  %35 = icmp eq ptr %34, null
  br i1 %35, label %36, label %40

36:                                               ; preds = %29
  %37 = load i64, ptr @H5E_VOL_g, align 8, !tbaa !3
  %38 = load i64, ptr @H5E_CANTOPENOBJ_g, align 8, !tbaa !3
  %39 = tail call i32 (ptr, ptr, i32, i64, i64, ptr, ...) @H5E_printf_stack(ptr noundef nonnull @.str, ptr noundef nonnull @__func__.H5VL_attr_open, i32 noundef 1200, i64 noundef %37, i64 noundef %38, ptr noundef nonnull @.str.28) #7
  br label %40

40:                                               ; preds = %36, %29
  %41 = tail call i32 @H5VL_reset_vol_wrapper() #7
  %42 = icmp slt i32 %41, 0
  br i1 %42, label %43, label %47

43:                                               ; preds = %40
  %44 = load i64, ptr @H5E_VOL_g, align 8, !tbaa !3
  %45 = load i64, ptr @H5E_CANTRESET_g, align 8, !tbaa !3
  %46 = tail call i32 (ptr, ptr, i32, i64, i64, ptr, ...) @H5E_printf_stack(ptr noundef nonnull @.str, ptr noundef nonnull @__func__.H5VL_attr_open, i32 noundef 1205, i64 noundef %44, i64 noundef %45, ptr noundef nonnull @.str.26) #7
  br label %47

47:                                               ; preds = %15, %25, %40, %43, %19
  %.1 = phi ptr [ null, %43 ], [ %34, %40 ], [ null, %19 ], [ null, %15 ], [ null, %25 ]
  ret ptr %.1
}